; Function Attrs: nounwind uwtable
define internal fastcc noundef ptr @Hop_ManFetchMemory(ptr noundef %0) unnamed_addr #0 {
  %2 = getelementptr inbounds nuw i8, ptr %0, i64 160
  %3 = load ptr, ptr %2, align 8
  %4 = icmp eq ptr %3, null
  br i1 %4, label %5, label %6

5:                                                ; preds = %1
  tail call void @Hop_ManAddMemory(ptr noundef nonnull %0) #10
  %.pre = load ptr, ptr %2, align 8
  br label %6

6:                                                ; preds = %5, %1
  %7 = phi ptr [ %.pre, %5 ], [ %3, %1 ]
  %8 = load ptr, ptr %7, align 8
  store ptr %8, ptr %2, align 8
  tail call void @llvm.memset.p0.i64(ptr noundef nonnull align 8 dereferenceable(40) %7, i8 0, i64 40, i1 false)
  %9 = getelementptr inbounds nuw i8, ptr %0, i64 16
  %10 = load ptr, ptr %9, align 8
  %.not = icmp eq ptr %10, null
  br i1 %.not, label %43, label %11

11:                                               ; preds = %6
  %12 = getelementptr inbounds nuw i8, ptr %10, i64 4
  %13 = load i32, ptr %12, align 4
  %14 = load i32, ptr %10, align 8
  %15 = icmp eq i32 %13, %14
  br i1 %15, label %16, label %.Vec_PtrGrow.exit11_crit_edge.i

.Vec_PtrGrow.exit11_crit_edge.i:                  ; preds = %11
  %.phi.trans.insert.i = getelementptr inbounds nuw i8, ptr %10, i64 8
  %.pre.i = load ptr, ptr %.phi.trans.insert.i, align 8
  br label %Vec_PtrPush.exit

16:                                               ; preds = %11
  %17 = icmp slt i32 %13, 16
  br i1 %17, label %18, label %26

18:                                               ; preds = %16
  %19 = getelementptr inbounds nuw i8, ptr %10, i64 8
  %20 = load ptr, ptr %19, align 8
  %.not9.i.i = icmp eq ptr %20, null
  br i1 %.not9.i.i, label %23, label %21

21:                                               ; preds = %18
  %22 = tail call dereferenceable_or_null(128) ptr @realloc(ptr noundef nonnull %20, i64 noundef 128) #8
  br label %Vec_PtrGrow.exit.i

23:                                               ; preds = %18
  %24 = tail call noalias dereferenceable_or_null(128) ptr @malloc(i64 noundef 128) #9
  br label %Vec_PtrGrow.exit.i

Vec_PtrGrow.exit.i:                               ; preds = %23, %21
  %25 = phi ptr [ %22, %21 ], [ %24, %23 ]
  store ptr %25, ptr %19, align 8
  store i32 16, ptr %10, align 8
  br label %Vec_PtrPush.exit

26:                                               ; preds = %16
  %27 = shl nuw nsw i32 %13, 1
  %28 = getelementptr inbounds nuw i8, ptr %10, i64 8
  %29 = load ptr, ptr %28, align 8
  %.not9.i10.i = icmp eq ptr %29, null
  %30 = zext nneg i32 %27 to i64
  %31 = shl nuw nsw i64 %30, 3
  br i1 %.not9.i10.i, label %34, label %32

32:                                               ; preds = %26
  %33 = tail call ptr @realloc(ptr noundef nonnull %29, i64 noundef %31) #8
  br label %36

34:                                               ; preds = %26
  %35 = tail call noalias ptr @malloc(i64 noundef %31) #9
  br label %36

36:                                               ; preds = %34, %32
  %37 = phi ptr [ %33, %32 ], [ %35, %34 ]
  store ptr %37, ptr %28, align 8
  store i32 %27, ptr %10, align 8
  br label %Vec_PtrPush.exit

Vec_PtrPush.exit:                                 ; preds = %.Vec_PtrGrow.exit11_crit_edge.i, %Vec_PtrGrow.exit.i, %36
  %38 = phi ptr [ %.pre.i, %.Vec_PtrGrow.exit11_crit_edge.i ], [ %37, %36 ], [ %25, %Vec_PtrGrow.exit.i ]
  %39 = load i32, ptr %12, align 4
  %40 = add nsw i32 %39, 1
  store i32 %40, ptr %12, align 4
  %41 = sext i32 %39 to i64
  %42 = getelementptr inbounds ptr, ptr %38, i64 %41
  store ptr %7, ptr %42, align 8
  br label %43

43:                                               ; preds = %Vec_PtrPush.exit, %6
  %44 = getelementptr inbounds nuw i8, ptr %0, i64 96
  %45 = load i32, ptr %44, align 8
  %46 = add nsw i32 %45, 1
  store i32 %46, ptr %44, align 8
  %47 = getelementptr inbounds nuw i8, ptr %7, i64 36
  store i32 %45, ptr %47, align 4
  ret ptr %7
}